target datalayout = "e-m:e-p270:32:32-p271:32:32-p272:64:64-i64:64-i128:128-f80:128-n8:16:32:64-S128"
target triple = "x86_64-pc-linux-gnu"

%"class.smt::theory_array" = type <{ %"class.smt::theory_array_base.base", [7 x i8], %class.ptr_vector.20, ptr, %"struct.smt::theory_array_stats", [4 x i8], %class.union_find, %class.trail_stack, i32, [4 x i8] }>
%"class.smt::theory_array_base.base" = type <{ %"class.smt::theory.base", i8, [2 x i8], i32, [4 x i8], %class.svector.1, %class.ptr_vector, %class.svector.3, %class.svector.3, %class.svector.3, %class.scoped_ptr, %class.ptr_vector.5, %class.obj_map, %class.ptr_hashtable, %class.svector.9, ptr, %class.ptr_vector, %class.ptr_vector.11, %class.svector.1, %class.obj_map.13, %class.ptr_vector, %class.ptr_vector.18, i8 }>
%"class.smt::theory.base" = type <{ ptr, i32, [4 x i8], ptr, ptr, %class.ptr_vector, %class.svector, i32, i8 }>
%class.svector = type { %class.vector.0 }
%class.vector.0 = type { ptr }
%class.svector.3 = type { %class.vector.4 }
%class.vector.4 = type { ptr }
%class.scoped_ptr = type { ptr }
%class.ptr_vector.5 = type { %class.vector.6 }
%class.vector.6 = type { ptr }
%class.obj_map = type { %class.core_hashtable }
%class.core_hashtable = type <{ ptr, i32, i32, i32, [4 x i8] }>
%class.ptr_hashtable = type { %class.core_hashtable.base.8, [4 x i8] }
%class.core_hashtable.base.8 = type <{ ptr, i32, i32, i32 }>
%class.svector.9 = type { %class.vector.10 }
%class.vector.10 = type { ptr }
%class.ptr_vector.11 = type { %class.vector.12 }
%class.vector.12 = type { ptr }
%class.svector.1 = type { %class.vector.2 }
%class.vector.2 = type { ptr }
%class.obj_map.13 = type { %class.core_hashtable.14 }
%class.core_hashtable.14 = type <{ ptr, i32, i32, i32, [4 x i8] }>
%class.ptr_vector = type { %class.vector }
%class.vector = type { ptr }
%class.ptr_vector.18 = type { %class.vector.19 }
%class.vector.19 = type { ptr }
%class.ptr_vector.20 = type { %class.vector.21 }
%class.vector.21 = type { ptr }
%"struct.smt::theory_array_stats" = type { i32, i32, i32, i32, i32, i32, i32, i32, i32, i32, i32, i32, i32 }
%class.union_find = type { ptr, ptr, %class.svector, %class.svector, %class.svector, %"class.union_find<smt::theory_array>::mk_var_trail" }
%"class.union_find<smt::theory_array>::mk_var_trail" = type { %class.trail, ptr }
%class.trail = type { ptr }
%class.trail_stack = type { %class.ptr_vector.22, %class.svector, %class.region }
%class.ptr_vector.22 = type { %class.vector.23 }
%class.vector.23 = type { ptr }
%class.region = type { ptr, ptr, ptr, ptr, ptr }
%"struct.smt::theory_array::var_data" = type <{ %class.ptr_vector, %class.ptr_vector, %class.ptr_vector, i8, i8, i8, [5 x i8] }>

; Function Attrs: mustprogress nounwind uwtable
define linkonce_odr hidden noundef i32 @_ZNK6vectorIPN3smt5enodeELb0EjE4sizeEv(ptr noundef nonnull align 8 dereferenceable(8) %0) #4 comdat align 2 {
  %2 = alloca i32, align 4
  %3 = alloca ptr, align 8
  store ptr %0, ptr %3, align 8, !tbaa !585
  %4 = load ptr, ptr %3, align 8
  %5 = getelementptr inbounds nuw %class.vector, ptr %4, i32 0, i32 0
  %6 = load ptr, ptr %5, align 8, !tbaa !587
  %7 = icmp eq ptr %6, null
  br i1 %7, label %8, label %9

8:                                                ; preds = %1
  store i32 0, ptr %2, align 4
  br label %14

9:                                                ; preds = %1
  %10 = getelementptr inbounds nuw %class.vector, ptr %4, i32 0, i32 0
  %11 = load ptr, ptr %10, align 8, !tbaa !587
  %12 = getelementptr inbounds i32, ptr %11, i64 -1
  %13 = load i32, ptr %12, align 4, !tbaa !8
  store i32 %13, ptr %2, align 4
  br label %14

14:                                               ; preds = %9, %8
  %15 = load i32, ptr %2, align 4
  ret i32 %15
}

; Function Attrs: mustprogress uwtable
define hidden noundef zeroext i1 @_ZN3smt12theory_array19instantiate_axiom2bEPNS_5enodeES2_(ptr noundef nonnull align 8 dereferenceable(444) %0, ptr noundef %1, ptr noundef %2) #6 align 2 {
  %4 = alloca i1, align 1
  %5 = alloca ptr, align 8
  %6 = alloca ptr, align 8
  %7 = alloca ptr, align 8
  store ptr %0, ptr %5, align 8, !tbaa !28
  store ptr %1, ptr %6, align 8, !tbaa !581
  store ptr %2, ptr %7, align 8, !tbaa !581
  %8 = load ptr, ptr %5, align 8
  %9 = load ptr, ptr %7, align 8, !tbaa !581
  %10 = load ptr, ptr %6, align 8, !tbaa !581
  %11 = call noundef zeroext i1 @_ZN3smt17theory_array_base19assert_store_axiom2EPNS_5enodeES2_(ptr noundef nonnull align 8 dereferenceable(249) %8, ptr noundef %9, ptr noundef %10)
  br i1 %11, label %12, label %17

12:                                               ; preds = %3
  %13 = getelementptr inbounds nuw %"class.smt::theory_array", ptr %8, i32 0, i32 4
  %14 = getelementptr inbounds nuw %"struct.smt::theory_array_stats", ptr %13, i32 0, i32 2
  %15 = load i32, ptr %14, align 8, !tbaa !618
  %16 = add i32 %15, 1
  store i32 %16, ptr %14, align 8, !tbaa !618
  store i1 true, ptr %4, align 1
  br label %18

17:                                               ; preds = %3
  store i1 false, ptr %4, align 1
  br label %18

18:                                               ; preds = %17, %12
  %19 = load i1, ptr %4, align 1
  ret i1 %19
}

; Function Attrs: mustprogress nounwind uwtable
define linkonce_odr hidden noundef ptr @_ZN6vectorIPN3smt5enodeELb0EjE3endEv(ptr noundef nonnull align 8 dereferenceable(8) %0) #4 comdat align 2 {
  %2 = alloca ptr, align 8
  store ptr %0, ptr %2, align 8, !tbaa !585
  %3 = load ptr, ptr %2, align 8
  %4 = getelementptr inbounds nuw %class.vector, ptr %3, i32 0, i32 0
  %5 = load ptr, ptr %4, align 8, !tbaa !587
  %6 = call noundef i32 @_ZNK6vectorIPN3smt5enodeELb0EjE4sizeEv(ptr noundef nonnull align 8 dereferenceable(8) %3)
  %7 = zext i32 %6 to i64
  %8 = getelementptr inbounds nuw ptr, ptr %5, i64 %7
  ret ptr %8
}

; Function Attrs: mustprogress nounwind uwtable
define linkonce_odr hidden noundef ptr @_ZN6vectorIPN3smt5enodeELb0EjE5beginEv(ptr noundef nonnull align 8 dereferenceable(8) %0) #4 comdat align 2 {
  %2 = alloca ptr, align 8
  store ptr %0, ptr %2, align 8, !tbaa !585
  %3 = load ptr, ptr %2, align 8
  %4 = getelementptr inbounds nuw %class.vector, ptr %3, i32 0, i32 0
  %5 = load ptr, ptr %4, align 8, !tbaa !587
  ret ptr %5
}

; Function Attrs: mustprogress nounwind uwtable
define linkonce_odr hidden noundef nonnull align 8 dereferenceable(8) ptr @_ZN6vectorIPN3smt12theory_array8var_dataELb0EjEixEj(ptr noundef nonnull align 8 dereferenceable(8) %0, i32 noundef %1) #4 comdat align 2 {
  %3 = alloca ptr, align 8
  %4 = alloca i32, align 4
  store ptr %0, ptr %3, align 8, !tbaa !569
  store i32 %1, ptr %4, align 4, !tbaa !8
  %5 = load ptr, ptr %3, align 8
  %6 = getelementptr inbounds nuw %class.vector.21, ptr %5, i32 0, i32 0
  %7 = load ptr, ptr %6, align 8, !tbaa !578
  %8 = load i32, ptr %4, align 4, !tbaa !8
  %9 = zext i32 %8 to i64
  %10 = getelementptr inbounds nuw ptr, ptr %7, i64 %9
  ret ptr %10
}

; Function Attrs: mustprogress uwtable
define hidden noundef zeroext i1 @_ZN3smt12theory_array23instantiate_axiom2b_forEi(ptr noundef nonnull align 8 dereferenceable(444) %0, i32 noundef %1) #6 align 2 {
  %3 = alloca ptr, align 8
  %4 = alloca i32, align 4
  %5 = alloca i8, align 1
  %6 = alloca ptr, align 8
  %7 = alloca ptr, align 8
  %8 = alloca ptr, align 8
  %9 = alloca ptr, align 8
  %10 = alloca i32, align 4
  %11 = alloca ptr, align 8
  %12 = alloca ptr, align 8
  %13 = alloca ptr, align 8
  %14 = alloca ptr, align 8
  %15 = alloca ptr, align 8
  store ptr %0, ptr %3, align 8, !tbaa !28
  store i32 %1, ptr %4, align 4, !tbaa !8
  %16 = load ptr, ptr %3, align 8
  call void @llvm.lifetime.start.p0(i64 1, ptr %5) #3
  store i8 0, ptr %5, align 1, !tbaa !10
  call void @llvm.lifetime.start.p0(i64 8, ptr %6) #3
  %17 = getelementptr inbounds nuw %"class.smt::theory_array", ptr %16, i32 0, i32 2
  %18 = load i32, ptr %4, align 4, !tbaa !8
  %19 = call noundef nonnull align 8 dereferenceable(8) ptr @_ZN6vectorIPN3smt12theory_array8var_dataELb0EjEixEj(ptr noundef nonnull align 8 dereferenceable(8) %17, i32 noundef %18)
  %20 = load ptr, ptr %19, align 8, !tbaa !574
  store ptr %20, ptr %6, align 8, !tbaa !574
  call void @llvm.lifetime.start.p0(i64 8, ptr %7) #3
  %21 = load ptr, ptr %6, align 8, !tbaa !574
  %22 = getelementptr inbounds nuw %"struct.smt::theory_array::var_data", ptr %21, i32 0, i32 2
  store ptr %22, ptr %7, align 8, !tbaa !593
  call void @llvm.lifetime.start.p0(i64 8, ptr %8) #3
  %23 = load ptr, ptr %7, align 8, !tbaa !593
  %24 = call noundef ptr @_ZN6vectorIPN3smt5enodeELb0EjE5beginEv(ptr noundef nonnull align 8 dereferenceable(8) %23)
  store ptr %24, ptr %8, align 8, !tbaa !594
  call void @llvm.lifetime.start.p0(i64 8, ptr %9) #3
  %25 = load ptr, ptr %7, align 8, !tbaa !593
  %26 = call noundef ptr @_ZN6vectorIPN3smt5enodeELb0EjE3endEv(ptr noundef nonnull align 8 dereferenceable(8) %25)
  store ptr %26, ptr %9, align 8, !tbaa !594
  br label %27

27:                                               ; preds = %58, %2
  %28 = load ptr, ptr %8, align 8, !tbaa !594
  %29 = load ptr, ptr %9, align 8, !tbaa !594
  %30 = icmp ne ptr %28, %29
  br i1 %30, label %32, label %31

31:                                               ; preds = %27
  store i32 2, ptr %10, align 4
  call void @llvm.lifetime.end.p0(i64 8, ptr %9) #3
  call void @llvm.lifetime.end.p0(i64 8, ptr %8) #3
  call void @llvm.lifetime.end.p0(i64 8, ptr %7) #3
  br label %61

32:                                               ; preds = %27
  call void @llvm.lifetime.start.p0(i64 8, ptr %11) #3
  %33 = load ptr, ptr %8, align 8, !tbaa !594
  %34 = load ptr, ptr %33, align 8, !tbaa !581
  store ptr %34, ptr %11, align 8, !tbaa !581
  call void @llvm.lifetime.start.p0(i64 8, ptr %12) #3
  %35 = load ptr, ptr %6, align 8, !tbaa !574
  %36 = getelementptr inbounds nuw %"struct.smt::theory_array::var_data", ptr %35, i32 0, i32 1
  store ptr %36, ptr %12, align 8, !tbaa !593
  call void @llvm.lifetime.start.p0(i64 8, ptr %13) #3
  %37 = load ptr, ptr %12, align 8, !tbaa !593
  %38 = call noundef ptr @_ZN6vectorIPN3smt5enodeELb0EjE5beginEv(ptr noundef nonnull align 8 dereferenceable(8) %37)
  store ptr %38, ptr %13, align 8, !tbaa !594
  call void @llvm.lifetime.start.p0(i64 8, ptr %14) #3
  %39 = load ptr, ptr %12, align 8, !tbaa !593
  %40 = call noundef ptr @_ZN6vectorIPN3smt5enodeELb0EjE3endEv(ptr noundef nonnull align 8 dereferenceable(8) %39)
  store ptr %40, ptr %14, align 8, !tbaa !594
  br label %41

41:                                               ; preds = %54, %32
  %42 = load ptr, ptr %13, align 8, !tbaa !594
  %43 = load ptr, ptr %14, align 8, !tbaa !594
  %44 = icmp ne ptr %42, %43
  br i1 %44, label %46, label %45

45:                                               ; preds = %41
  store i32 4, ptr %10, align 4
  call void @llvm.lifetime.end.p0(i64 8, ptr %14) #3
  call void @llvm.lifetime.end.p0(i64 8, ptr %13) #3
  call void @llvm.lifetime.end.p0(i64 8, ptr %12) #3
  br label %57

46:                                               ; preds = %41
  call void @llvm.lifetime.start.p0(i64 8, ptr %15) #3
  %47 = load ptr, ptr %13, align 8, !tbaa !594
  %48 = load ptr, ptr %47, align 8, !tbaa !581
  store ptr %48, ptr %15, align 8, !tbaa !581
  %49 = load ptr, ptr %15, align 8, !tbaa !581
  %50 = load ptr, ptr %11, align 8, !tbaa !581
  %51 = call noundef zeroext i1 @_ZN3smt12theory_array19instantiate_axiom2bEPNS_5enodeES2_(ptr noundef nonnull align 8 dereferenceable(444) %16, ptr noundef %49, ptr noundef %50)
  br i1 %51, label %52, label %53

52:                                               ; preds = %46
  store i8 1, ptr %5, align 1, !tbaa !10
  br label %53

53:                                               ; preds = %52, %46
  call void @llvm.lifetime.end.p0(i64 8, ptr %15) #3
  br label %54

54:                                               ; preds = %53
  %55 = load ptr, ptr %13, align 8, !tbaa !594
  %56 = getelementptr inbounds nuw ptr, ptr %55, i32 1
  store ptr %56, ptr %13, align 8, !tbaa !594
  br label %41

57:                                               ; preds = %45
  call void @llvm.lifetime.end.p0(i64 8, ptr %11) #3
  br label %58

58:                                               ; preds = %57
  %59 = load ptr, ptr %8, align 8, !tbaa !594
  %60 = getelementptr inbounds nuw ptr, ptr %59, i32 1
  store ptr %60, ptr %8, align 8, !tbaa !594
  br label %27

61:                                               ; preds = %31
  %62 = load i8, ptr %5, align 1, !tbaa !10, !range !12, !noundef !13
  %63 = trunc i8 %62 to i1
  store i32 1, ptr %10, align 4
  call void @llvm.lifetime.end.p0(i64 8, ptr %6) #3
  call void @llvm.lifetime.end.p0(i64 1, ptr %5) #3
  ret i1 %63
}