; Function Attrs: mustprogress uwtable
define hidden noundef zeroext i1 @_ZN3smt12theory_array23instantiate_axiom2b_forEi(ptr noundef nonnull align 8 dereferenceable(444) %0, i32 noundef %1) local_unnamed_addr #4 align 2 {
  %3 = getelementptr inbounds nuw i8, ptr %0, i64 256
  %4 = load ptr, ptr %3, align 8, !tbaa !6
  %5 = zext i32 %1 to i64
  %6 = getelementptr inbounds nuw ptr, ptr %4, i64 %5
  %7 = load ptr, ptr %6, align 8, !tbaa !561
  %8 = getelementptr inbounds nuw i8, ptr %7, i64 16
  %9 = load ptr, ptr %8, align 8, !tbaa !550
  %10 = icmp eq ptr %9, null
  br i1 %10, label %._crit_edge30, label %_ZN6vectorIPN3smt5enodeELb0EjE3endEv.exit

_ZN6vectorIPN3smt5enodeELb0EjE3endEv.exit:        ; preds = %2
  %11 = getelementptr inbounds i8, ptr %9, i64 -4
  %12 = load i32, ptr %11, align 4, !tbaa !560
  %13 = zext i32 %12 to i64
  %14 = getelementptr inbounds nuw ptr, ptr %9, i64 %13
  %.not26 = icmp eq i32 %12, 0
  br i1 %.not26, label %._crit_edge30, label %.lr.ph29

.lr.ph29:                                         ; preds = %_ZN6vectorIPN3smt5enodeELb0EjE3endEv.exit
  %15 = getelementptr inbounds nuw i8, ptr %7, i64 8
  %16 = getelementptr inbounds nuw i8, ptr %0, i64 280
  br label %17

._crit_edge30:                                    ; preds = %._crit_edge, %2, %_ZN6vectorIPN3smt5enodeELb0EjE3endEv.exit
  %.0.lcssa = phi i1 [ false, %_ZN6vectorIPN3smt5enodeELb0EjE3endEv.exit ], [ false, %2 ], [ %.1.lcssa, %._crit_edge ]
  ret i1 %.0.lcssa

17:                                               ; preds = %.lr.ph29, %._crit_edge
  %.028 = phi i1 [ false, %.lr.ph29 ], [ %.1.lcssa, %._crit_edge ]
  %.01827 = phi ptr [ %9, %.lr.ph29 ], [ %25, %._crit_edge ]
  %18 = load ptr, ptr %.01827, align 8, !tbaa !570
  %19 = load ptr, ptr %15, align 8, !tbaa !550
  %20 = icmp eq ptr %19, null
  br i1 %20, label %._crit_edge, label %_ZN6vectorIPN3smt5enodeELb0EjE3endEv.exit22

_ZN6vectorIPN3smt5enodeELb0EjE3endEv.exit22:      ; preds = %17
  %21 = getelementptr inbounds i8, ptr %19, i64 -4
  %22 = load i32, ptr %21, align 4, !tbaa !560
  %23 = zext i32 %22 to i64
  %24 = getelementptr inbounds nuw ptr, ptr %19, i64 %23
  %.not2023 = icmp eq i32 %22, 0
  br i1 %.not2023, label %._crit_edge, label %.lr.ph

._crit_edge:                                      ; preds = %_ZN3smt12theory_array19instantiate_axiom2bEPNS_5enodeES2_.exit, %17, %_ZN6vectorIPN3smt5enodeELb0EjE3endEv.exit22
  %.1.lcssa = phi i1 [ %.028, %_ZN6vectorIPN3smt5enodeELb0EjE3endEv.exit22 ], [ %.028, %17 ], [ %spec.select, %_ZN3smt12theory_array19instantiate_axiom2bEPNS_5enodeES2_.exit ]
  %25 = getelementptr inbounds nuw i8, ptr %.01827, i64 8
  %.not = icmp eq ptr %25, %14
  br i1 %.not, label %._crit_edge30, label %17

.lr.ph:                                           ; preds = %_ZN6vectorIPN3smt5enodeELb0EjE3endEv.exit22, %_ZN3smt12theory_array19instantiate_axiom2bEPNS_5enodeES2_.exit
  %.125 = phi i1 [ %spec.select, %_ZN3smt12theory_array19instantiate_axiom2bEPNS_5enodeES2_.exit ], [ %.028, %_ZN6vectorIPN3smt5enodeELb0EjE3endEv.exit22 ]
  %.01924 = phi ptr [ %31, %_ZN3smt12theory_array19instantiate_axiom2bEPNS_5enodeES2_.exit ], [ %19, %_ZN6vectorIPN3smt5enodeELb0EjE3endEv.exit22 ]
  %26 = load ptr, ptr %.01924, align 8, !tbaa !570
  %27 = tail call noundef zeroext i1 @_ZN3smt17theory_array_base19assert_store_axiom2EPNS_5enodeES2_(ptr noundef nonnull align 8 dereferenceable(444) %0, ptr noundef %18, ptr noundef %26)
  br i1 %27, label %28, label %_ZN3smt12theory_array19instantiate_axiom2bEPNS_5enodeES2_.exit

28:                                               ; preds = %.lr.ph
  %29 = load i32, ptr %16, align 8, !tbaa !594
  %30 = add i32 %29, 1
  store i32 %30, ptr %16, align 8, !tbaa !594
  br label %_ZN3smt12theory_array19instantiate_axiom2bEPNS_5enodeES2_.exit

_ZN3smt12theory_array19instantiate_axiom2bEPNS_5enodeES2_.exit: ; preds = %.lr.ph, %28
  %spec.select = phi i1 [ %.125, %.lr.ph ], [ true, %28 ]
  %31 = getelementptr inbounds nuw i8, ptr %.01924, i64 8
  %.not20 = icmp eq ptr %31, %24
  br i1 %.not20, label %._crit_edge, label %.lr.ph
}